target datalayout = "e-m:e-p270:32:32-p271:32:32-p272:64:64-i64:64-i128:128-f80:128-n8:16:32:64-S128"
target triple = "x86_64-pc-linux-gnu"

; Function Attrs: nounwind uwtable
define dso_local i32 @string2d(ptr noundef %0, i64 noundef %1, ptr noundef %2) #0 {
  %4 = alloca i32, align 4
  %5 = alloca ptr, align 8
  %6 = alloca i64, align 8
  %7 = alloca ptr, align 8
  %8 = alloca ptr, align 8
  %9 = alloca i32, align 4
  store ptr %0, ptr %5, align 8, !tbaa !5
  store i64 %1, ptr %6, align 8, !tbaa !29
  store ptr %2, ptr %7, align 8, !tbaa !48
  %10 = call ptr @__errno_location() #14
  store i32 0, ptr %10, align 4, !tbaa !10
  call void @llvm.lifetime.start.p0(i64 8, ptr %8) #13
  %11 = load ptr, ptr %5, align 8, !tbaa !5
  %12 = call double @fast_float_strtod(ptr noundef %11, ptr noundef %8)
  %13 = load ptr, ptr %7, align 8, !tbaa !48
  store double %12, ptr %13, align 8, !tbaa !50
  %14 = load i64, ptr %6, align 8, !tbaa !29
  %15 = icmp eq i64 %14, 0
  br i1 %15, label %60, label %16

16:                                               ; preds = %3
  %17 = call ptr @__ctype_b_loc() #14
  %18 = load ptr, ptr %17, align 8, !tbaa !24
  %19 = load ptr, ptr %5, align 8, !tbaa !5
  %20 = getelementptr inbounds i8, ptr %19, i64 0
  %21 = load i8, ptr %20, align 1, !tbaa !12
  %22 = sext i8 %21 to i32
  %23 = sext i32 %22 to i64
  %24 = getelementptr inbounds i16, ptr %18, i64 %23
  %25 = load i16, ptr %24, align 2, !tbaa !26
  %26 = zext i16 %25 to i32
  %27 = and i32 %26, 8192
  %28 = icmp ne i32 %27, 0
  br i1 %28, label %60, label %29

29:                                               ; preds = %16
  %30 = load ptr, ptr %8, align 8, !tbaa !5
  %31 = load ptr, ptr %5, align 8, !tbaa !5
  %32 = ptrtoint ptr %30 to i64
  %33 = ptrtoint ptr %31 to i64
  %34 = sub i64 %32, %33
  %35 = load i64, ptr %6, align 8, !tbaa !29
  %36 = icmp ne i64 %34, %35
  br i1 %36, label %60, label %37

37:                                               ; preds = %29
  %38 = call ptr @__errno_location() #14
  %39 = load i32, ptr %38, align 4, !tbaa !10
  %40 = icmp eq i32 %39, 34
  br i1 %40, label %41, label %56

41:                                               ; preds = %37
  %42 = load ptr, ptr %7, align 8, !tbaa !48
  %43 = load double, ptr %42, align 8, !tbaa !50
  %44 = fcmp oeq double %43, 0x7FF0000000000000
  br i1 %44, label %60, label %45

45:                                               ; preds = %41
  %46 = load ptr, ptr %7, align 8, !tbaa !48
  %47 = load double, ptr %46, align 8, !tbaa !50
  %48 = fcmp oeq double %47, 0xFFF0000000000000
  br i1 %48, label %60, label %49

49:                                               ; preds = %45
  %50 = load ptr, ptr %7, align 8, !tbaa !48
  %51 = load double, ptr %50, align 8, !tbaa !50
  %52 = fcmp oeq double %51, 0.000000e+00
  br i1 %52, label %53, label %61

53:                                               ; preds = %66, %63, %61, %49
  %54 = phi i32 [ 2, %49 ], [ 0, %61 ], [ 1, %63 ], [ %68, %66 ]
  %55 = icmp eq i32 %54, 2
  br i1 %55, label %60, label %56

56:                                               ; preds = %53, %37
  %57 = load ptr, ptr %7, align 8, !tbaa !48
  %58 = load double, ptr %57, align 8, !tbaa !50
  %59 = call i1 @llvm.is.fpclass.f64(double %58, i32 3)
  br i1 %59, label %60, label %69

60:                                               ; preds = %56, %53, %45, %41, %29, %16, %3
  store i32 0, ptr %4, align 4
  store i32 1, ptr %9, align 4
  br label %70

61:                                               ; preds = %49
  %62 = fcmp uno double %51, %51
  br i1 %62, label %53, label %63

63:                                               ; preds = %61
  %64 = call double @llvm.fabs.f64(double %51) #16
  %65 = fcmp oeq double %64, 0x7FF0000000000000
  br i1 %65, label %53, label %66

66:                                               ; preds = %63
  %67 = fcmp uge double %64, 0x10000000000000
  %68 = select i1 %67, i32 4, i32 3
  br label %53

69:                                               ; preds = %56
  store i32 1, ptr %4, align 4
  store i32 1, ptr %9, align 4
  br label %70

70:                                               ; preds = %69, %60
  call void @llvm.lifetime.end.p0(i64 8, ptr %8) #13
  %71 = load i32, ptr %4, align 4
  ret i32 %71
}