; Function Attrs: nounwind uwtable
define dso_local range(i32 0, 2) i32 @string2d(ptr noundef %0, i64 noundef %1, ptr noundef writeonly captures(none) initializes((0, 8)) %2) local_unnamed_addr #4 {
  %4 = alloca ptr, align 8
  %5 = tail call ptr @__errno_location() #30
  store i32 0, ptr %5, align 4, !tbaa !5
  call void @llvm.lifetime.start.p0(i64 8, ptr nonnull %4) #29
  %6 = call double @fast_float_strtod(ptr noundef %0, ptr noundef nonnull %4) #29
  store double %6, ptr %2, align 8, !tbaa !42
  %7 = icmp eq i64 %1, 0
  br i1 %7, label %.critedge, label %8

8:                                                ; preds = %3
  %9 = tail call ptr @__ctype_b_loc() #30
  %10 = load ptr, ptr %9, align 8, !tbaa !22
  %11 = load i8, ptr %0, align 1, !tbaa !9
  %12 = sext i8 %11 to i64
  %13 = getelementptr inbounds i16, ptr %10, i64 %12
  %14 = load i16, ptr %13, align 2, !tbaa !24
  %15 = and i16 %14, 8192
  %.not = icmp eq i16 %15, 0
  br i1 %.not, label %16, label %.critedge

16:                                               ; preds = %8
  %17 = load ptr, ptr %4, align 8, !tbaa !27
  %18 = ptrtoint ptr %17 to i64
  %19 = ptrtoint ptr %0 to i64
  %20 = sub i64 %18, %19
  %.not13 = icmp eq i64 %20, %1
  br i1 %.not13, label %21, label %.critedge

21:                                               ; preds = %16
  %22 = load i32, ptr %5, align 4, !tbaa !5
  %23 = icmp eq i32 %22, 34
  br i1 %23, label %24, label %25

24:                                               ; preds = %21
  %or.cond14 = call i1 @llvm.is.fpclass.f64(double %6, i32 615)
  br i1 %or.cond14, label %.critedge, label %26

25:                                               ; preds = %21
  %.old = fcmp uno double %6, 0.000000e+00
  br i1 %.old, label %.critedge, label %26

26:                                               ; preds = %24, %25
  br label %.critedge

.critedge:                                        ; preds = %3, %8, %16, %24, %25, %26
  %.0 = phi i32 [ 1, %26 ], [ 0, %25 ], [ 0, %24 ], [ 0, %16 ], [ 0, %8 ], [ 0, %3 ]
  call void @llvm.lifetime.end.p0(i64 8, ptr nonnull %4) #29
  ret i32 %.0
}